; Function Attrs: null_pointer_is_valid sspstrong uwtable
define internal void @cose_header_context_cleanup(ptr noundef captures(none) %0) #0 {
  %2 = load ptr, ptr %0, align 8
  %.not = icmp eq ptr %2, null
  br i1 %.not, label %4, label %3

3:                                                ; preds = %1
  tail call void @g_variant_unref(ptr noundef nonnull %2)
  br label %4

4:                                                ; preds = %3, %1
  %5 = getelementptr inbounds nuw i8, ptr %0, i64 8
  %6 = load ptr, ptr %5, align 8
  %.not7 = icmp eq ptr %6, null
  br i1 %.not7, label %8, label %7

7:                                                ; preds = %4
  tail call void @g_variant_unref(ptr noundef nonnull %6)
  store ptr null, ptr %5, align 8
  br label %8

8:                                                ; preds = %7, %4
  ret void
}